target datalayout = "e-m:e-p270:32:32-p271:32:32-p272:64:64-i64:64-i128:128-f80:128-n8:16:32:64-S128"
target triple = "x86_64-pc-linux-gnu"

%struct.reftable_block_source = type { ptr, ptr }
%struct.reftable_reader = type { ptr, %struct.reftable_block_source, i64, i32, i32, i64, i64, i32, i32, %struct.reftable_reader_offsets, %struct.reftable_reader_offsets, %struct.reftable_reader_offsets, i64 }
%struct.reftable_reader_offsets = type { i32, i64, i64 }

@.str.1 = private unnamed_addr constant [18 x i8] c"reftable/reader.c\00", align 1
@.str.2 = private unnamed_addr constant [44 x i8] c"cannot increment ref counter of dead reader\00", align 1

; Function Attrs: nounwind uwtable
define dso_local void @reftable_reader_incref(ptr noundef %0) #0 {
  %2 = alloca ptr, align 8
  store ptr %0, ptr %2, align 8, !tbaa !26
  %3 = load ptr, ptr %2, align 8, !tbaa !26
  %4 = getelementptr inbounds nuw %struct.reftable_reader, ptr %3, i32 0, i32 12
  %5 = load i64, ptr %4, align 8, !tbaa !63
  %6 = icmp ne i64 %5, 0
  br i1 %6, label %8, label %7

7:                                                ; preds = %1
  call void (ptr, i32, ptr, ...) @BUG_fl(ptr noundef @.str.1, i32 noundef 678, ptr noundef @.str.2) #11
  unreachable

8:                                                ; preds = %1
  %9 = load ptr, ptr %2, align 8, !tbaa !26
  %10 = getelementptr inbounds nuw %struct.reftable_reader, ptr %9, i32 0, i32 12
  %11 = load i64, ptr %10, align 8, !tbaa !63
  %12 = add i64 %11, 1
  store i64 %12, ptr %10, align 8, !tbaa !63
  ret void
}