; Function Attrs: nounwind uwtable
define dso_local void @reftable_reader_incref(ptr noundef captures(none) %0) local_unnamed_addr #0 {
  %2 = getelementptr inbounds nuw i8, ptr %0, i64 136
  %3 = load i64, ptr %2, align 8, !tbaa !32
  %.not = icmp eq i64 %3, 0
  br i1 %.not, label %4, label %5

4:                                                ; preds = %1
  tail call void (ptr, i32, ptr, ...) @BUG_fl(ptr noundef nonnull @.str.1, i32 noundef 678, ptr noundef nonnull @.str.2) #13
  unreachable

5:                                                ; preds = %1
  %6 = add i64 %3, 1
  store i64 %6, ptr %2, align 8, !tbaa !32
  ret void
}